target datalayout = "e-m:e-p270:32:32-p271:32:32-p272:64:64-i64:64-i128:128-f80:128-n8:16:32:64-S128"
target triple = "x86_64-pc-linux-gnu"

%"class.doctest::String" = type { %union.anon.7 }
%union.anon.7 = type { %"struct.doctest::String::view", [8 x i8] }
%"struct.doctest::String::view" = type { ptr, i32, i32 }

@_ZN7doctest6StringD1Ev = dso_local unnamed_addr alias void (ptr), ptr @_ZN7doctest6StringD2Ev
@_ZN7doctest6StringC1ERKS0_ = dso_local unnamed_addr alias void (ptr, ptr), ptr @_ZN7doctest6StringC2ERKS0_

; Function Attrs: mustprogress uwtable
define dso_local void @_ZN7doctestplERKNS_6StringES2_(ptr dead_on_unwind noalias writable sret(%"class.doctest::String") align 8 %0, ptr noundef nonnull align 8 dereferenceable(24) %1, ptr noundef nonnull align 8 dereferenceable(24) %2) #8 personality ptr @__gxx_personality_v0 {
  %4 = alloca ptr, align 8
  %5 = alloca ptr, align 8
  %6 = alloca ptr, align 8
  %7 = alloca %"class.doctest::String", align 8
  %8 = alloca ptr, align 8
  %9 = alloca i32, align 4
  store ptr %0, ptr %4, align 8
  store ptr %1, ptr %5, align 8, !tbaa !59
  store ptr %2, ptr %6, align 8, !tbaa !59
  %10 = load ptr, ptr %6, align 8, !tbaa !59
  call void @llvm.lifetime.start.p0(i64 24, ptr %7) #7
  %11 = load ptr, ptr %5, align 8, !tbaa !59
  call void @_ZN7doctest6StringC1ERKS0_(ptr noundef nonnull align 8 dereferenceable(24) %7, ptr noundef nonnull align 8 dereferenceable(24) %11)
  %12 = invoke noundef nonnull align 8 dereferenceable(24) ptr @_ZN7doctest6StringpLERKS0_(ptr noundef nonnull align 8 dereferenceable(24) %7, ptr noundef nonnull align 8 dereferenceable(24) %10)
          to label %13 unwind label %15

13:                                               ; preds = %3
  invoke void @_ZN7doctest6StringC1ERKS0_(ptr noundef nonnull align 8 dereferenceable(24) %0, ptr noundef nonnull align 8 dereferenceable(24) %12)
          to label %14 unwind label %15

14:                                               ; preds = %13
  call void @_ZN7doctest6StringD1Ev(ptr noundef nonnull align 8 dereferenceable(24) %7) #7
  call void @llvm.lifetime.end.p0(i64 24, ptr %7) #7
  ret void

15:                                               ; preds = %13, %3
  %16 = landingpad { ptr, i32 }
          cleanup
  %17 = extractvalue { ptr, i32 } %16, 0
  store ptr %17, ptr %8, align 8
  %18 = extractvalue { ptr, i32 } %16, 1
  store i32 %18, ptr %9, align 4
  call void @_ZN7doctest6StringD1Ev(ptr noundef nonnull align 8 dereferenceable(24) %7) #7
  call void @llvm.lifetime.end.p0(i64 24, ptr %7) #7
  br label %19

19:                                               ; preds = %15
  %20 = load ptr, ptr %8, align 8
  %21 = load i32, ptr %9, align 4
  %22 = insertvalue { ptr, i32 } poison, ptr %20, 0
  %23 = insertvalue { ptr, i32 } %22, i32 %21, 1
  resume { ptr, i32 } %23
}