; Function Attrs: mustprogress uwtable
define dso_local void @_ZN7doctestplERKNS_6StringES2_(ptr dead_on_unwind noalias writable writeonly sret(%"class.doctest::String") align 8 captures(none) %0, ptr noundef nonnull readonly align 8 captures(none) dereferenceable(24) %1, ptr noundef nonnull readonly align 8 captures(none) dereferenceable(24) %2) local_unnamed_addr #8 personality ptr @__gxx_personality_v0 {
  %4 = alloca %"class.doctest::String", align 8
  call void @llvm.lifetime.start.p0(i64 24, ptr nonnull %4) #49
  %5 = getelementptr inbounds nuw i8, ptr %1, i64 23
  %6 = load i8, ptr %5, align 1, !tbaa !38
  %7 = icmp sgt i8 %6, -1
  br i1 %7, label %8, label %9

8:                                                ; preds = %3
  call void @llvm.memcpy.p0.p0.i64(ptr noundef nonnull align 8 dereferenceable(24) %4, ptr noundef nonnull readonly align 8 dereferenceable(24) %1, i64 24, i1 false)
  br label %_ZN7doctest6StringC2ERKS0_.exit

9:                                                ; preds = %3
  %10 = getelementptr inbounds nuw i8, ptr %1, i64 8
  %11 = load i32, ptr %10, align 8, !tbaa !38
  %12 = icmp ult i32 %11, 24
  br i1 %12, label %13, label %19

13:                                               ; preds = %9
  %14 = zext nneg i32 %11 to i64
  %15 = getelementptr inbounds nuw [24 x i8], ptr %4, i64 0, i64 %14
  store i8 0, ptr %15, align 1, !tbaa !38
  %16 = trunc nuw i32 %11 to i8
  %17 = sub nuw nsw i8 23, %16
  %18 = getelementptr inbounds nuw i8, ptr %4, i64 23
  store i8 %17, ptr %18, align 1, !tbaa !38
  br label %_ZN7doctest6String8allocateEj.exit.i.i

19:                                               ; preds = %9
  %20 = getelementptr inbounds nuw i8, ptr %4, i64 23
  store i8 -128, ptr %20, align 1, !tbaa !38
  %21 = getelementptr inbounds nuw i8, ptr %4, i64 8
  store i32 %11, ptr %21, align 8, !tbaa !38
  %22 = add i32 %11, 1
  %23 = getelementptr inbounds nuw i8, ptr %4, i64 12
  store i32 %22, ptr %23, align 4, !tbaa !38
  %24 = zext i32 %22 to i64
  %25 = tail call noalias noundef nonnull ptr @_Znam(i64 noundef %24) #51
  store ptr %25, ptr %4, align 8, !tbaa !38
  %26 = zext i32 %11 to i64
  %27 = getelementptr inbounds nuw i8, ptr %25, i64 %26
  store i8 0, ptr %27, align 1, !tbaa !38
  br label %_ZN7doctest6String8allocateEj.exit.i.i

_ZN7doctest6String8allocateEj.exit.i.i:           ; preds = %19, %13
  %.pre-phi7 = phi i64 [ %26, %19 ], [ %14, %13 ]
  %.0.i.i.i = phi ptr [ %25, %19 ], [ %4, %13 ]
  %28 = load ptr, ptr %1, align 8, !tbaa !38
  call void @llvm.memcpy.p0.p0.i64(ptr nonnull align 1 %.0.i.i.i, ptr align 1 %28, i64 %.pre-phi7, i1 false)
  br label %_ZN7doctest6StringC2ERKS0_.exit

_ZN7doctest6StringC2ERKS0_.exit:                  ; preds = %8, %_ZN7doctest6String8allocateEj.exit.i.i
  %29 = invoke noundef nonnull align 8 dereferenceable(24) ptr @_ZN7doctest6StringpLERKS0_(ptr noundef nonnull align 8 dereferenceable(24) %4, ptr noundef nonnull align 8 dereferenceable(24) %2)
          to label %30 unwind label %57

30:                                               ; preds = %_ZN7doctest6StringC2ERKS0_.exit
  %31 = getelementptr inbounds nuw i8, ptr %4, i64 23
  %32 = load i8, ptr %31, align 1, !tbaa !38
  %33 = icmp sgt i8 %32, -1
  br i1 %33, label %_ZN7doctest6StringC2ERKS0_.exit5.thread, label %34

_ZN7doctest6StringC2ERKS0_.exit5.thread:          ; preds = %30
  call void @llvm.memcpy.p0.p0.i64(ptr noundef nonnull align 8 dereferenceable(24) %0, ptr noundef nonnull readonly align 8 dereferenceable(24) %4, i64 24, i1 false)
  br label %_ZN7doctest6StringD2Ev.exit

34:                                               ; preds = %30
  %35 = getelementptr inbounds nuw i8, ptr %4, i64 8
  %36 = load i32, ptr %35, align 8, !tbaa !38
  %37 = icmp ult i32 %36, 24
  br i1 %37, label %38, label %44

38:                                               ; preds = %34
  %39 = zext nneg i32 %36 to i64
  %40 = getelementptr inbounds nuw [24 x i8], ptr %0, i64 0, i64 %39
  store i8 0, ptr %40, align 1, !tbaa !38
  %41 = trunc nuw i32 %36 to i8
  %42 = sub nuw nsw i8 23, %41
  %43 = getelementptr inbounds nuw i8, ptr %0, i64 23
  store i8 %42, ptr %43, align 1, !tbaa !38
  br label %53

44:                                               ; preds = %34
  %45 = getelementptr inbounds nuw i8, ptr %0, i64 23
  store i8 -128, ptr %45, align 1, !tbaa !38
  %46 = getelementptr inbounds nuw i8, ptr %0, i64 8
  store i32 %36, ptr %46, align 8, !tbaa !38
  %47 = add i32 %36, 1
  %48 = getelementptr inbounds nuw i8, ptr %0, i64 12
  store i32 %47, ptr %48, align 4, !tbaa !38
  %49 = zext i32 %47 to i64
  %50 = invoke noalias noundef nonnull ptr @_Znam(i64 noundef %49) #51
          to label %.noexc unwind label %57

.noexc:                                           ; preds = %44
  store ptr %50, ptr %0, align 8, !tbaa !38
  %51 = zext i32 %36 to i64
  %52 = getelementptr inbounds nuw i8, ptr %50, i64 %51
  store i8 0, ptr %52, align 1, !tbaa !38
  br label %53

53:                                               ; preds = %.noexc, %38
  %.pre-phi = phi i64 [ %51, %.noexc ], [ %39, %38 ]
  %.0.i.i.i4 = phi ptr [ %50, %.noexc ], [ %0, %38 ]
  %54 = load ptr, ptr %4, align 8, !tbaa !38
  call void @llvm.memcpy.p0.p0.i64(ptr nonnull align 1 %.0.i.i.i4, ptr align 1 %54, i64 %.pre-phi, i1 false)
  %55 = icmp eq ptr %54, null
  br i1 %55, label %_ZN7doctest6StringD2Ev.exit, label %56

56:                                               ; preds = %53
  call void @_ZdaPv(ptr noundef nonnull %54) #48
  br label %_ZN7doctest6StringD2Ev.exit

_ZN7doctest6StringD2Ev.exit:                      ; preds = %_ZN7doctest6StringC2ERKS0_.exit5.thread, %53, %56
  call void @llvm.lifetime.end.p0(i64 24, ptr nonnull %4) #49
  ret void

57:                                               ; preds = %44, %_ZN7doctest6StringC2ERKS0_.exit
  %58 = landingpad { ptr, i32 }
          cleanup
  %59 = getelementptr inbounds nuw i8, ptr %4, i64 23
  %60 = load i8, ptr %59, align 1, !tbaa !38
  %61 = icmp sgt i8 %60, -1
  br i1 %61, label %_ZN7doctest6StringD2Ev.exit6, label %62

62:                                               ; preds = %57
  %63 = load ptr, ptr %4, align 8, !tbaa !38
  %64 = icmp eq ptr %63, null
  br i1 %64, label %_ZN7doctest6StringD2Ev.exit6, label %65

65:                                               ; preds = %62
  call void @_ZdaPv(ptr noundef nonnull %63) #48
  br label %_ZN7doctest6StringD2Ev.exit6

_ZN7doctest6StringD2Ev.exit6:                     ; preds = %57, %62, %65
  call void @llvm.lifetime.end.p0(i64 24, ptr nonnull %4) #49
  resume { ptr, i32 } %58
}